; Function Attrs: nounwind uwtable
define ptr @l_List_tail_x21___rarg___boxed(ptr noundef %0) #0 {
  %2 = ptrtoint ptr %0 to i64
  %3 = and i64 %2, 1
  %.not.i.i = icmp eq i64 %3, 0
  br i1 %.not.i.i, label %7, label %4

4:                                                ; preds = %1
  %5 = lshr i64 %2, 1
  %6 = trunc i64 %5 to i32
  br label %lean_obj_tag.exit.i

7:                                                ; preds = %1
  %8 = getelementptr i8, ptr %0, i64 4
  %.val.i.i = load i32, ptr %8, align 4
  %9 = lshr i32 %.val.i.i, 24
  br label %lean_obj_tag.exit.i

lean_obj_tag.exit.i:                              ; preds = %7, %4
  %.0.i.i = phi i32 [ %6, %4 ], [ %9, %7 ]
  %10 = icmp eq i32 %.0.i.i, 0
  br i1 %10, label %11, label %14

11:                                               ; preds = %lean_obj_tag.exit.i
  %12 = load ptr, ptr @l_List_tail_x21___rarg___closed__2, align 8, !tbaa !10
  %13 = tail call ptr @lean_panic_fn(ptr noundef nonnull inttoptr (i64 1 to ptr), ptr noundef %12) #4
  br label %l_List_tail_x21___rarg.exit

14:                                               ; preds = %lean_obj_tag.exit.i
  %15 = getelementptr inbounds nuw i8, ptr %0, i64 16
  %16 = load ptr, ptr %15, align 8, !tbaa !10
  %17 = ptrtoint ptr %16 to i64
  %18 = and i64 %17, 1
  %.not.i3 = icmp eq i64 %18, 0
  br i1 %.not.i3, label %19, label %l_List_tail_x21___rarg.exit

19:                                               ; preds = %14
  %.val.i7.i = load i32, ptr %16, align 4, !tbaa !4
  %20 = icmp sgt i32 %.val.i7.i, 0
  br i1 %20, label %21, label %23, !prof !9

21:                                               ; preds = %19
  %22 = add nuw i32 %.val.i7.i, 1
  store i32 %22, ptr %16, align 4, !tbaa !4
  br label %l_List_tail_x21___rarg.exit

23:                                               ; preds = %19
  %.not.i8.i = icmp eq i32 %.val.i7.i, 0
  br i1 %.not.i8.i, label %l_List_tail_x21___rarg.exit, label %24

24:                                               ; preds = %23
  tail call void @lean_inc_ref_cold(ptr noundef nonnull %16) #4
  br label %l_List_tail_x21___rarg.exit

l_List_tail_x21___rarg.exit:                      ; preds = %11, %14, %21, %23, %24
  %.0.i = phi ptr [ %13, %11 ], [ %16, %24 ], [ %16, %23 ], [ %16, %21 ], [ %16, %14 ]
  br i1 %.not.i.i, label %25, label %lean_dec.exit

25:                                               ; preds = %l_List_tail_x21___rarg.exit
  %26 = load i32, ptr %0, align 4, !tbaa !4
  %27 = icmp sgt i32 %26, 1
  br i1 %27, label %28, label %30, !prof !9

28:                                               ; preds = %25
  %29 = add nsw i32 %26, -1
  store i32 %29, ptr %0, align 4, !tbaa !4
  br label %lean_dec.exit

30:                                               ; preds = %25
  %.not.i = icmp eq i32 %26, 0
  br i1 %.not.i, label %lean_dec.exit, label %31

31:                                               ; preds = %30
  tail call void @lean_dec_ref_cold(ptr noundef nonnull %0) #4
  br label %lean_dec.exit

lean_dec.exit:                                    ; preds = %31, %30, %28, %l_List_tail_x21___rarg.exit
  ret ptr %.0.i
}